; Function Attrs: mustprogress nounwind uwtable
define internal fastcc noundef ptr @_ZN12_GLOBAL__N_118LibCallsShrinkWrap10createCondEPN4llvm8CallInstEPNS1_5ValueENS1_7CmpInst9PredicateEf(ptr noundef nonnull %0, ptr noundef %1, i32 noundef %2, float noundef %3) unnamed_addr #0 align 2 {
  %5 = alloca %"class.llvm::IRBuilder", align 8
  %6 = tail call noundef nonnull align 8 dereferenceable(8) ptr @_ZNK4llvm5Value10getContextEv(ptr noundef nonnull align 8 dereferenceable(24) %0) #10
  %7 = getelementptr inbounds nuw i8, ptr %5, i64 128
  %8 = getelementptr inbounds nuw i8, ptr %5, i64 136
  %9 = getelementptr inbounds i8, ptr %5, i64 16
  call void @_ZN4llvm15SmallVectorBaseIjEC2EPvm(ptr noundef nonnull align 8 dereferenceable(16) %5, ptr noundef nonnull %9, i64 noundef 2) #10
  %10 = getelementptr inbounds nuw i8, ptr %5, i64 72
  store ptr %6, ptr %10, align 8
  %11 = getelementptr inbounds nuw i8, ptr %5, i64 80
  store ptr %7, ptr %11, align 8
  %12 = getelementptr inbounds nuw i8, ptr %5, i64 88
  store ptr %8, ptr %12, align 8
  %13 = getelementptr inbounds nuw i8, ptr %5, i64 96
  store ptr null, ptr %13, align 8
  %14 = getelementptr inbounds nuw i8, ptr %5, i64 104
  store i32 0, ptr %14, align 8
  %15 = getelementptr inbounds nuw i8, ptr %5, i64 108
  store i8 0, ptr %15, align 4
  %16 = getelementptr inbounds nuw i8, ptr %5, i64 109
  store i8 2, ptr %16, align 1
  %17 = getelementptr inbounds nuw i8, ptr %5, i64 110
  store i8 7, ptr %17, align 2
  %18 = getelementptr inbounds nuw i8, ptr %5, i64 112
  %19 = getelementptr inbounds nuw i8, ptr %5, i64 48
  call void @llvm.memset.p0.i64(ptr noundef nonnull align 8 dereferenceable(18) %19, i8 0, i64 18, i1 false)
  call void @llvm.memset.p0.i64(ptr noundef nonnull align 8 dereferenceable(16) %18, i8 0, i64 16, i1 false)
  store ptr getelementptr inbounds inrange(-16, 160) (i8, ptr @_ZTVN4llvm14ConstantFolderE, i64 16), ptr %7, align 8
  store ptr getelementptr inbounds inrange(-16, 24) (i8, ptr @_ZTVN4llvm24IRBuilderDefaultInserterE, i64 16), ptr %8, align 8
  call void @_ZN4llvm13IRBuilderBase14SetInsertPointEPNS_11InstructionE(ptr noundef nonnull align 8 dereferenceable(128) %5, ptr noundef nonnull %0)
  %20 = call fastcc noundef ptr @_ZN12_GLOBAL__N_118LibCallsShrinkWrap10createCondERN4llvm9IRBuilderINS1_14ConstantFolderENS1_24IRBuilderDefaultInserterEEEPNS1_5ValueENS1_7CmpInst9PredicateEf(ptr noundef nonnull align 8 dereferenceable(144) %5, ptr noundef %1, i32 noundef %2, float noundef %3)
  call void @_ZN4llvm24IRBuilderDefaultInserterD1Ev(ptr noundef nonnull align 8 dereferenceable(8) %8) #10
  call void @_ZN4llvm15IRBuilderFolderD2Ev(ptr noundef nonnull align 8 dereferenceable(8) %7) #10
  %21 = call noundef i64 @_ZNK4llvm15SmallVectorBaseIjE4sizeEv(ptr noundef nonnull align 8 dereferenceable(16) %5) #10
  %22 = load ptr, ptr %5, align 8
  %23 = icmp eq ptr %22, %9
  br i1 %23, label %_ZN4llvm9IRBuilderINS_14ConstantFolderENS_24IRBuilderDefaultInserterEED2Ev.exit, label %24

24:                                               ; preds = %4
  call void @free(ptr noundef %22) #10
  br label %_ZN4llvm9IRBuilderINS_14ConstantFolderENS_24IRBuilderDefaultInserterEED2Ev.exit

_ZN4llvm9IRBuilderINS_14ConstantFolderENS_24IRBuilderDefaultInserterEED2Ev.exit: ; preds = %4, %24
  ret ptr %20
}